target datalayout = "e-m:e-p270:32:32-p271:32:32-p272:64:64-i64:64-i128:128-f80:128-n8:16:32:64-S128"
target triple = "x86_64-pc-linux-gnu"

%"struct.cv::softfloat" = type { i32 }

; Function Attrs: mustprogress uwtable
define internal void @_ZN2cvL7f32_subENS_9softfloatES0_(ptr dead_on_unwind noalias writable sret(%"struct.cv::softfloat") align 4 %0, ptr noundef %1, ptr noundef %2) #0 {
  %4 = alloca ptr, align 8
  %5 = alloca ptr, align 8
  %6 = alloca ptr, align 8
  %7 = alloca i64, align 8
  %8 = alloca i64, align 8
  store ptr %0, ptr %4, align 8
  store ptr %1, ptr %5, align 8
  store ptr %2, ptr %6, align 8
  %9 = getelementptr inbounds %"struct.cv::softfloat", ptr %1, i32 0, i32 0
  %10 = load i32, ptr %9, align 4
  %11 = zext i32 %10 to i64
  store i64 %11, ptr %7, align 8
  %12 = getelementptr inbounds %"struct.cv::softfloat", ptr %2, i32 0, i32 0
  %13 = load i32, ptr %12, align 4
  %14 = zext i32 %13 to i64
  store i64 %14, ptr %8, align 8
  %15 = load i64, ptr %7, align 8
  %16 = load i64, ptr %8, align 8
  %17 = xor i64 %15, %16
  %18 = trunc i64 %17 to i32
  %19 = lshr i32 %18, 31
  %20 = icmp ne i32 %19, 0
  br i1 %20, label %21, label %24

21:                                               ; preds = %3
  %22 = load i64, ptr %7, align 8
  %23 = load i64, ptr %8, align 8
  call void @_ZN2cvL20softfloat_addMagsF32Emm(ptr dead_on_unwind writable sret(%"struct.cv::softfloat") align 4 %0, i64 noundef %22, i64 noundef %23)
  br label %27

24:                                               ; preds = %3
  %25 = load i64, ptr %7, align 8
  %26 = load i64, ptr %8, align 8
  call void @_ZN2cvL20softfloat_subMagsF32Emm(ptr dead_on_unwind writable sret(%"struct.cv::softfloat") align 4 %0, i64 noundef %25, i64 noundef %26)
  br label %27

27:                                               ; preds = %24, %21
  ret void
}

; Function Attrs: mustprogress nounwind uwtable
define linkonce_odr hidden void @_ZN2cv9softfloatC2ERKS0_(ptr noundef nonnull align 4 dereferenceable(4) %0, ptr noundef nonnull align 4 dereferenceable(4) %1) unnamed_addr #1 comdat align 2 {
  %3 = alloca ptr, align 8
  %4 = alloca ptr, align 8
  store ptr %0, ptr %3, align 8
  store ptr %1, ptr %4, align 8
  %5 = load ptr, ptr %3, align 8
  %6 = load ptr, ptr %4, align 8
  %7 = getelementptr inbounds %"struct.cv::softfloat", ptr %6, i32 0, i32 0
  %8 = load i32, ptr %7, align 4
  %9 = getelementptr inbounds %"struct.cv::softfloat", ptr %5, i32 0, i32 0
  store i32 %8, ptr %9, align 4
  ret void
}

; Function Attrs: mustprogress uwtable
define void @_ZNK2cv9softfloatmiERKS0_(ptr dead_on_unwind noalias writable sret(%"struct.cv::softfloat") align 4 %0, ptr noundef nonnull align 4 dereferenceable(4) %1, ptr noundef nonnull align 4 dereferenceable(4) %2) #0 align 2 {
  %4 = alloca ptr, align 8
  %5 = alloca ptr, align 8
  %6 = alloca ptr, align 8
  %7 = alloca %"struct.cv::softfloat", align 4
  %8 = alloca %"struct.cv::softfloat", align 4
  store ptr %0, ptr %4, align 8
  store ptr %1, ptr %5, align 8
  store ptr %2, ptr %6, align 8
  %9 = load ptr, ptr %5, align 8
  call void @_ZN2cv9softfloatC2ERKS0_(ptr noundef nonnull align 4 dereferenceable(4) %7, ptr noundef nonnull align 4 dereferenceable(4) %9)
  %10 = load ptr, ptr %6, align 8
  call void @_ZN2cv9softfloatC2ERKS0_(ptr noundef nonnull align 4 dereferenceable(4) %8, ptr noundef nonnull align 4 dereferenceable(4) %10)
  call void @_ZN2cvL7f32_subENS_9softfloatES0_(ptr dead_on_unwind writable sret(%"struct.cv::softfloat") align 4 %0, ptr noundef %7, ptr noundef %8)
  ret void
}