; Function Attrs: mustprogress nofree norecurse nosync nounwind willreturn memory(argmem: readwrite) uwtable
define void @_ZNK2cv9softfloatmiERKS0_(ptr dead_on_unwind noalias nocapture writable writeonly sret(%"struct.cv::softfloat") align 4 %0, ptr nocapture noundef nonnull readonly align 4 dereferenceable(4) %1, ptr nocapture noundef nonnull readonly align 4 dereferenceable(4) %2) local_unnamed_addr #2 align 2 {
  %4 = load i32, ptr %1, align 4
  %5 = load i32, ptr %2, align 4
  %6 = zext i32 %4 to i64
  %7 = zext i32 %5 to i64
  %8 = xor i32 %5, %4
  %.not.i = icmp sgt i32 %8, -1
  br i1 %.not.i, label %10, label %9

9:                                                ; preds = %3
  tail call fastcc void @_ZN2cvL20softfloat_addMagsF32Emm(ptr dead_on_unwind noalias writable align 4 %0, i64 noundef %6, i64 noundef %7), !alias.scope !25
  br label %_ZN2cvL7f32_subENS_9softfloatES0_.exit

10:                                               ; preds = %3
  tail call fastcc void @_ZN2cvL20softfloat_subMagsF32Emm(ptr dead_on_unwind noalias writable align 4 %0, i64 noundef %6, i64 noundef %7), !alias.scope !25
  br label %_ZN2cvL7f32_subENS_9softfloatES0_.exit

_ZN2cvL7f32_subENS_9softfloatES0_.exit:           ; preds = %9, %10
  ret void
}